; Function Attrs: mustprogress uwtable
define noundef ptr @_ZN5ZXing10DataMatrix10SymbolInfo6LookupEiNS0_11SymbolShapeEiiii(i32 noundef %0, i32 noundef %1, i32 noundef %2, i32 noundef %3, i32 noundef %4, i32 noundef %5) local_unnamed_addr #1 align 2 {
  %7 = or i32 %3, %2
  %or.cond = icmp sgt i32 %7, -1
  %8 = or i32 %5, %4
  %or.cond3 = icmp sgt i32 %8, -1
  br i1 %or.cond, label %.split.us, label %.split

.split.us:                                        ; preds = %6, %select.unfold.us
  %.02937.us = phi i64 [ %52, %select.unfold.us ], [ 0, %6 ]
  %9 = getelementptr inbounds nuw %"class.ZXing::DataMatrix::SymbolInfo", ptr @_ZN5ZXing10DataMatrixL12PROD_SYMBOLSE, i64 %.02937.us
  switch i32 %1, label %16 [
    i32 1, label %13
    i32 2, label %10
  ]

10:                                               ; preds = %.split.us
  %11 = load i8, ptr %9, align 16, !tbaa !11, !range !12, !noundef !13
  %12 = trunc nuw i8 %11 to i1
  br i1 %12, label %16, label %select.unfold.us

13:                                               ; preds = %.split.us
  %14 = load i8, ptr %9, align 16, !tbaa !11, !range !12, !noundef !13
  %15 = trunc nuw i8 %14 to i1
  br i1 %15, label %select.unfold.us, label %16

16:                                               ; preds = %13, %10, %.split.us
  %17 = tail call noundef i32 @_ZNK5ZXing10DataMatrix10SymbolInfo21horizontalDataRegionsEv(ptr noundef nonnull align 4 dereferenceable(32) %9)
  %18 = getelementptr inbounds nuw i8, ptr %9, i64 12
  %19 = load i32, ptr %18, align 4, !tbaa !14
  %20 = mul nsw i32 %19, %17
  %21 = tail call noundef i32 @_ZNK5ZXing10DataMatrix10SymbolInfo21horizontalDataRegionsEv(ptr noundef nonnull align 4 dereferenceable(32) %9)
  %22 = shl nuw nsw i32 %21, 1
  %23 = add nsw i32 %22, %20
  %24 = icmp slt i32 %23, %2
  br i1 %24, label %select.unfold.us, label %25

25:                                               ; preds = %16
  %26 = tail call noundef i32 @_ZNK5ZXing10DataMatrix10SymbolInfo19verticalDataRegionsEv(ptr noundef nonnull align 4 dereferenceable(32) %9)
  %27 = getelementptr inbounds nuw i8, ptr %9, i64 16
  %28 = load i32, ptr %27, align 16, !tbaa !15
  %29 = mul nsw i32 %28, %26
  %30 = tail call noundef i32 @_ZNK5ZXing10DataMatrix10SymbolInfo19verticalDataRegionsEv(ptr noundef nonnull align 4 dereferenceable(32) %9)
  %31 = shl nuw nsw i32 %30, 1
  %32 = add nsw i32 %31, %29
  %33 = icmp slt i32 %32, %3
  br i1 %33, label %select.unfold.us, label %34

34:                                               ; preds = %25
  br i1 %or.cond3, label %35, label %49

35:                                               ; preds = %34
  %36 = tail call noundef i32 @_ZNK5ZXing10DataMatrix10SymbolInfo21horizontalDataRegionsEv(ptr noundef nonnull align 4 dereferenceable(32) %9)
  %37 = mul nsw i32 %19, %36
  %38 = tail call noundef i32 @_ZNK5ZXing10DataMatrix10SymbolInfo21horizontalDataRegionsEv(ptr noundef nonnull align 4 dereferenceable(32) %9)
  %39 = shl nuw nsw i32 %38, 1
  %40 = add nsw i32 %39, %37
  %41 = icmp sgt i32 %40, %4
  br i1 %41, label %select.unfold.us, label %42

42:                                               ; preds = %35
  %43 = tail call noundef i32 @_ZNK5ZXing10DataMatrix10SymbolInfo19verticalDataRegionsEv(ptr noundef nonnull align 4 dereferenceable(32) %9)
  %44 = mul nsw i32 %28, %43
  %45 = tail call noundef i32 @_ZNK5ZXing10DataMatrix10SymbolInfo19verticalDataRegionsEv(ptr noundef nonnull align 4 dereferenceable(32) %9)
  %46 = shl nuw nsw i32 %45, 1
  %47 = add nsw i32 %46, %44
  %48 = icmp sgt i32 %47, %5
  br i1 %48, label %select.unfold.us, label %49

49:                                               ; preds = %42, %34
  %50 = getelementptr inbounds nuw i8, ptr %9, i64 4
  %51 = load i32, ptr %50, align 4, !tbaa !3
  %.not.us = icmp sgt i32 %0, %51
  br i1 %.not.us, label %select.unfold.us, label %.split39.us

select.unfold.us:                                 ; preds = %49, %42, %35, %25, %16, %13, %10
  %52 = add nuw nsw i64 %.02937.us, 1
  %exitcond67 = icmp eq i64 %52, 30
  br i1 %exitcond67, label %.split39.us, label %.split.us, !llvm.loop !9

.split:                                           ; preds = %6
  br i1 %or.cond3, label %.split.split.us, label %.split.split

.split.split.us:                                  ; preds = %.split, %select.unfold.us42
  %.02937.us40 = phi i64 [ %81, %select.unfold.us42 ], [ 0, %.split ]
  %53 = getelementptr inbounds nuw %"class.ZXing::DataMatrix::SymbolInfo", ptr @_ZN5ZXing10DataMatrixL12PROD_SYMBOLSE, i64 %.02937.us40
  switch i32 %1, label %60 [
    i32 1, label %57
    i32 2, label %54
  ]

54:                                               ; preds = %.split.split.us
  %55 = load i8, ptr %53, align 16, !tbaa !11, !range !12, !noundef !13
  %56 = trunc nuw i8 %55 to i1
  br i1 %56, label %60, label %select.unfold.us42

57:                                               ; preds = %.split.split.us
  %58 = load i8, ptr %53, align 16, !tbaa !11, !range !12, !noundef !13
  %59 = trunc nuw i8 %58 to i1
  br i1 %59, label %select.unfold.us42, label %60

60:                                               ; preds = %57, %54, %.split.split.us
  %61 = tail call noundef i32 @_ZNK5ZXing10DataMatrix10SymbolInfo21horizontalDataRegionsEv(ptr noundef nonnull align 4 dereferenceable(32) %53)
  %62 = getelementptr inbounds nuw i8, ptr %53, i64 12
  %63 = load i32, ptr %62, align 4, !tbaa !14
  %64 = mul nsw i32 %63, %61
  %65 = tail call noundef i32 @_ZNK5ZXing10DataMatrix10SymbolInfo21horizontalDataRegionsEv(ptr noundef nonnull align 4 dereferenceable(32) %53)
  %66 = shl nuw nsw i32 %65, 1
  %67 = add nsw i32 %66, %64
  %68 = icmp sgt i32 %67, %4
  br i1 %68, label %select.unfold.us42, label %69

69:                                               ; preds = %60
  %70 = tail call noundef i32 @_ZNK5ZXing10DataMatrix10SymbolInfo19verticalDataRegionsEv(ptr noundef nonnull align 4 dereferenceable(32) %53)
  %71 = getelementptr inbounds nuw i8, ptr %53, i64 16
  %72 = load i32, ptr %71, align 16, !tbaa !15
  %73 = mul nsw i32 %72, %70
  %74 = tail call noundef i32 @_ZNK5ZXing10DataMatrix10SymbolInfo19verticalDataRegionsEv(ptr noundef nonnull align 4 dereferenceable(32) %53)
  %75 = shl nuw nsw i32 %74, 1
  %76 = add nsw i32 %75, %73
  %77 = icmp sgt i32 %76, %5
  br i1 %77, label %select.unfold.us42, label %78

78:                                               ; preds = %69
  %79 = getelementptr inbounds nuw i8, ptr %53, i64 4
  %80 = load i32, ptr %79, align 4, !tbaa !3
  %.not.us41 = icmp sgt i32 %0, %80
  br i1 %.not.us41, label %select.unfold.us42, label %.split39.us

select.unfold.us42:                               ; preds = %78, %69, %60, %57, %54
  %81 = add nuw nsw i64 %.02937.us40, 1
  %exitcond66 = icmp eq i64 %81, 30
  br i1 %exitcond66, label %.split39.us, label %.split.split.us, !llvm.loop !9

.split.split:                                     ; preds = %.split
  switch i32 %1, label %.split.split.split [
    i32 1, label %.split.split.split.us
    i32 2, label %.split.split.split.us50
  ]

.split.split.split.us:                            ; preds = %.split.split, %select.unfold.us47
  %.02937.us45 = phi i64 [ %88, %select.unfold.us47 ], [ 0, %.split.split ]
  %82 = getelementptr inbounds nuw %"class.ZXing::DataMatrix::SymbolInfo", ptr @_ZN5ZXing10DataMatrixL12PROD_SYMBOLSE, i64 %.02937.us45
  %83 = load i8, ptr %82, align 16, !tbaa !11, !range !12, !noundef !13
  %84 = trunc nuw i8 %83 to i1
  br i1 %84, label %select.unfold.us47, label %85

85:                                               ; preds = %.split.split.split.us
  %86 = getelementptr inbounds nuw i8, ptr %82, i64 4
  %87 = load i32, ptr %86, align 4, !tbaa !3
  %.not.us46 = icmp sgt i32 %0, %87
  br i1 %.not.us46, label %select.unfold.us47, label %.split39.us

select.unfold.us47:                               ; preds = %85, %.split.split.split.us
  %88 = add nuw nsw i64 %.02937.us45, 1
  %exitcond64 = icmp eq i64 %88, 30
  br i1 %exitcond64, label %.split39.us, label %.split.split.split.us, !llvm.loop !9

.split.split.split.us50:                          ; preds = %.split.split, %select.unfold.us53
  %.02937.us51 = phi i64 [ %95, %select.unfold.us53 ], [ 0, %.split.split ]
  %89 = getelementptr inbounds nuw %"class.ZXing::DataMatrix::SymbolInfo", ptr @_ZN5ZXing10DataMatrixL12PROD_SYMBOLSE, i64 %.02937.us51
  %90 = load i8, ptr %89, align 16, !tbaa !11, !range !12, !noundef !13
  %91 = trunc nuw i8 %90 to i1
  br i1 %91, label %92, label %select.unfold.us53

92:                                               ; preds = %.split.split.split.us50
  %93 = getelementptr inbounds nuw i8, ptr %89, i64 4
  %94 = load i32, ptr %93, align 4, !tbaa !3
  %.not.us52 = icmp sgt i32 %0, %94
  br i1 %.not.us52, label %select.unfold.us53, label %.split39.us

select.unfold.us53:                               ; preds = %92, %.split.split.split.us50
  %95 = add nuw nsw i64 %.02937.us51, 1
  %exitcond = icmp eq i64 %95, 30
  br i1 %exitcond, label %.split39.us, label %.split.split.split.us50, !llvm.loop !9

.split.split.split:                               ; preds = %.split.split, %select.unfold
  %.02937 = phi i64 [ %99, %select.unfold ], [ 0, %.split.split ]
  %96 = getelementptr inbounds nuw %"class.ZXing::DataMatrix::SymbolInfo", ptr @_ZN5ZXing10DataMatrixL12PROD_SYMBOLSE, i64 %.02937
  %97 = getelementptr inbounds nuw i8, ptr %96, i64 4
  %98 = load i32, ptr %97, align 4, !tbaa !3
  %.not = icmp sgt i32 %0, %98
  br i1 %.not, label %select.unfold, label %.split39.us

select.unfold:                                    ; preds = %.split.split.split
  %99 = add nuw nsw i64 %.02937, 1
  %exitcond65 = icmp eq i64 %99, 30
  br i1 %exitcond65, label %.split39.us, label %.split.split.split, !llvm.loop !9

.split39.us:                                      ; preds = %select.unfold.us53, %92, %85, %select.unfold.us47, %.split.split.split, %select.unfold, %select.unfold.us42, %78, %49, %select.unfold.us
  %.us-phi = phi ptr [ null, %select.unfold.us ], [ %9, %49 ], [ null, %select.unfold.us42 ], [ %53, %78 ], [ null, %select.unfold ], [ %96, %.split.split.split ], [ null, %select.unfold.us47 ], [ %82, %85 ], [ null, %select.unfold.us53 ], [ %89, %92 ]
  ret ptr %.us-phi
}